target datalayout = "e-m:e-p270:32:32-p271:32:32-p272:64:64-i64:64-i128:128-f80:128-n8:16:32:64-S128"
target triple = "x86_64-pc-linux-gnu"

%struct.ucvector = type { ptr, i64, i64 }

@__const._ZL14writeSignatureP8ucvector.signature = private unnamed_addr constant [8 x i8] c"\89PNG\0D\0A\1A\0A", align 1

; Function Attrs: mustprogress nounwind uwtable
define internal noundef ptr @_ZL15lodepng_reallocPvm(ptr noundef %0, i64 noundef %1) #3 {
  %3 = alloca ptr, align 8
  %4 = alloca i64, align 8
  store ptr %0, ptr %3, align 8, !tbaa !44
  store i64 %1, ptr %4, align 8, !tbaa !17
  %5 = load ptr, ptr %3, align 8, !tbaa !44
  %6 = load i64, ptr %4, align 8, !tbaa !17
  %7 = call ptr @realloc(ptr noundef %5, i64 noundef %6) #19
  ret ptr %7
}

; Function Attrs: mustprogress uwtable
define internal noundef i32 @_ZL16ucvector_reserveP8ucvectorm(ptr noundef %0, i64 noundef %1) #0 {
  %3 = alloca i32, align 4
  %4 = alloca ptr, align 8
  %5 = alloca i64, align 8
  %6 = alloca i64, align 8
  %7 = alloca ptr, align 8
  %8 = alloca i32, align 4
  store ptr %0, ptr %4, align 8, !tbaa !65
  store i64 %1, ptr %5, align 8, !tbaa !17
  %9 = load i64, ptr %5, align 8, !tbaa !17
  %10 = load ptr, ptr %4, align 8, !tbaa !65
  %11 = getelementptr inbounds nuw %struct.ucvector, ptr %10, i32 0, i32 2
  %12 = load i64, ptr %11, align 8, !tbaa !64
  %13 = icmp ugt i64 %9, %12
  br i1 %13, label %14, label %40

14:                                               ; preds = %2
  call void @llvm.lifetime.start.p0(i64 8, ptr %6) #17
  %15 = load i64, ptr %5, align 8, !tbaa !17
  %16 = load ptr, ptr %4, align 8, !tbaa !65
  %17 = getelementptr inbounds nuw %struct.ucvector, ptr %16, i32 0, i32 2
  %18 = load i64, ptr %17, align 8, !tbaa !64
  %19 = lshr i64 %18, 1
  %20 = add i64 %15, %19
  store i64 %20, ptr %6, align 8, !tbaa !17
  call void @llvm.lifetime.start.p0(i64 8, ptr %7) #17
  %21 = load ptr, ptr %4, align 8, !tbaa !65
  %22 = getelementptr inbounds nuw %struct.ucvector, ptr %21, i32 0, i32 0
  %23 = load ptr, ptr %22, align 8, !tbaa !61
  %24 = load i64, ptr %6, align 8, !tbaa !17
  %25 = call noundef ptr @_ZL15lodepng_reallocPvm(ptr noundef %23, i64 noundef %24)
  store ptr %25, ptr %7, align 8, !tbaa !44
  %26 = load ptr, ptr %7, align 8, !tbaa !44
  %27 = icmp ne ptr %26, null
  br i1 %27, label %28, label %35

28:                                               ; preds = %14
  %29 = load i64, ptr %6, align 8, !tbaa !17
  %30 = load ptr, ptr %4, align 8, !tbaa !65
  %31 = getelementptr inbounds nuw %struct.ucvector, ptr %30, i32 0, i32 2
  store i64 %29, ptr %31, align 8, !tbaa !64
  %32 = load ptr, ptr %7, align 8, !tbaa !44
  %33 = load ptr, ptr %4, align 8, !tbaa !65
  %34 = getelementptr inbounds nuw %struct.ucvector, ptr %33, i32 0, i32 0
  store ptr %32, ptr %34, align 8, !tbaa !61
  br label %36

35:                                               ; preds = %14
  store i32 0, ptr %3, align 4
  store i32 1, ptr %8, align 4
  br label %37

36:                                               ; preds = %28
  store i32 0, ptr %8, align 4
  br label %37

37:                                               ; preds = %36, %35
  call void @llvm.lifetime.end.p0(i64 8, ptr %7) #17
  call void @llvm.lifetime.end.p0(i64 8, ptr %6) #17
  %38 = load i32, ptr %8, align 4
  switch i32 %38, label %43 [
    i32 0, label %39
    i32 1, label %41
  ]

39:                                               ; preds = %37
  br label %40

40:                                               ; preds = %39, %2
  store i32 1, ptr %3, align 4
  br label %41

41:                                               ; preds = %40, %37
  %42 = load i32, ptr %3, align 4
  ret i32 %42

43:                                               ; preds = %37
  unreachable
}

; Function Attrs: mustprogress nounwind uwtable
define internal void @_ZL14lodepng_memcpyPvPKvm(ptr noalias noundef %0, ptr noalias noundef %1, i64 noundef %2) #3 {
  %4 = alloca ptr, align 8
  %5 = alloca ptr, align 8
  %6 = alloca i64, align 8
  %7 = alloca i64, align 8
  store ptr %0, ptr %4, align 8, !tbaa !44
  store ptr %1, ptr %5, align 8, !tbaa !44
  store i64 %2, ptr %6, align 8, !tbaa !17
  call void @llvm.lifetime.start.p0(i64 8, ptr %7) #17
  store i64 0, ptr %7, align 8, !tbaa !17
  br label %8

8:                                                ; preds = %20, %3
  %9 = load i64, ptr %7, align 8, !tbaa !17
  %10 = load i64, ptr %6, align 8, !tbaa !17
  %11 = icmp ult i64 %9, %10
  br i1 %11, label %12, label %23

12:                                               ; preds = %8
  %13 = load ptr, ptr %5, align 8, !tbaa !44
  %14 = load i64, ptr %7, align 8, !tbaa !17
  %15 = getelementptr inbounds nuw i8, ptr %13, i64 %14
  %16 = load i8, ptr %15, align 1, !tbaa !45
  %17 = load ptr, ptr %4, align 8, !tbaa !44
  %18 = load i64, ptr %7, align 8, !tbaa !17
  %19 = getelementptr inbounds nuw i8, ptr %17, i64 %18
  store i8 %16, ptr %19, align 1, !tbaa !45
  br label %20

20:                                               ; preds = %12
  %21 = load i64, ptr %7, align 8, !tbaa !17
  %22 = add i64 %21, 1
  store i64 %22, ptr %7, align 8, !tbaa !17
  br label %8, !llvm.loop !112

23:                                               ; preds = %8
  call void @llvm.lifetime.end.p0(i64 8, ptr %7) #17
  ret void
}

; Function Attrs: mustprogress uwtable
define internal noundef i32 @_ZL15ucvector_resizeP8ucvectorm(ptr noundef %0, i64 noundef %1) #0 {
  %3 = alloca ptr, align 8
  %4 = alloca i64, align 8
  store ptr %0, ptr %3, align 8, !tbaa !65
  store i64 %1, ptr %4, align 8, !tbaa !17
  %5 = load i64, ptr %4, align 8, !tbaa !17
  %6 = load ptr, ptr %3, align 8, !tbaa !65
  %7 = getelementptr inbounds nuw %struct.ucvector, ptr %6, i32 0, i32 1
  store i64 %5, ptr %7, align 8, !tbaa !63
  %8 = load ptr, ptr %3, align 8, !tbaa !65
  %9 = load i64, ptr %4, align 8, !tbaa !17
  %10 = call noundef i32 @_ZL16ucvector_reserveP8ucvectorm(ptr noundef %8, i64 noundef %9)
  ret i32 %10
}

; Function Attrs: mustprogress uwtable
define internal noundef i32 @_ZL14writeSignatureP8ucvector(ptr noundef %0) #0 {
  %2 = alloca i32, align 4
  %3 = alloca ptr, align 8
  %4 = alloca i64, align 8
  %5 = alloca [8 x i8], align 1
  %6 = alloca i32, align 4
  store ptr %0, ptr %3, align 8, !tbaa !65
  call void @llvm.lifetime.start.p0(i64 8, ptr %4) #17
  %7 = load ptr, ptr %3, align 8, !tbaa !65
  %8 = getelementptr inbounds nuw %struct.ucvector, ptr %7, i32 0, i32 1
  %9 = load i64, ptr %8, align 8, !tbaa !63
  store i64 %9, ptr %4, align 8, !tbaa !17
  call void @llvm.lifetime.start.p0(i64 8, ptr %5) #17
  call void @llvm.memcpy.p0.p0.i64(ptr align 1 %5, ptr align 1 @__const._ZL14writeSignatureP8ucvector.signature, i64 8, i1 false)
  %10 = load ptr, ptr %3, align 8, !tbaa !65
  %11 = load ptr, ptr %3, align 8, !tbaa !65
  %12 = getelementptr inbounds nuw %struct.ucvector, ptr %11, i32 0, i32 1
  %13 = load i64, ptr %12, align 8, !tbaa !63
  %14 = add i64 %13, 8
  %15 = call noundef i32 @_ZL15ucvector_resizeP8ucvectorm(ptr noundef %10, i64 noundef %14)
  %16 = icmp ne i32 %15, 0
  br i1 %16, label %18, label %17

17:                                               ; preds = %1
  store i32 83, ptr %2, align 4
  store i32 1, ptr %6, align 4
  br label %25

18:                                               ; preds = %1
  %19 = load ptr, ptr %3, align 8, !tbaa !65
  %20 = getelementptr inbounds nuw %struct.ucvector, ptr %19, i32 0, i32 0
  %21 = load ptr, ptr %20, align 8, !tbaa !61
  %22 = load i64, ptr %4, align 8, !tbaa !17
  %23 = getelementptr inbounds nuw i8, ptr %21, i64 %22
  %24 = getelementptr inbounds [8 x i8], ptr %5, i64 0, i64 0
  call void @_ZL14lodepng_memcpyPvPKvm(ptr noundef %23, ptr noundef %24, i64 noundef 8)
  store i32 0, ptr %2, align 4
  store i32 1, ptr %6, align 4
  br label %25

25:                                               ; preds = %18, %17
  call void @llvm.lifetime.end.p0(i64 8, ptr %5) #17
  call void @llvm.lifetime.end.p0(i64 8, ptr %4) #17
  %26 = load i32, ptr %2, align 4
  ret i32 %26
}