; Function Attrs: mustprogress nounwind willreturn uwtable
define internal fastcc noundef range(i32 0, 84) i32 @_ZL14writeSignatureP8ucvector(ptr noundef nonnull captures(none) %0) unnamed_addr #11 {
  %2 = getelementptr inbounds nuw i8, ptr %0, i64 8
  %3 = load i64, ptr %2, align 8, !tbaa !58
  %4 = add i64 %3, 8
  store i64 %4, ptr %2, align 8, !tbaa !58
  %5 = getelementptr inbounds nuw i8, ptr %0, i64 16
  %6 = load i64, ptr %5, align 8, !tbaa !59
  %7 = icmp ugt i64 %4, %6
  %.pre = load ptr, ptr %0, align 8, !tbaa !53
  br i1 %7, label %8, label %12

8:                                                ; preds = %1
  %9 = lshr i64 %6, 1
  %10 = add i64 %9, %4
  %11 = tail call noalias noundef ptr @realloc(ptr noundef %.pre, i64 noundef %10) #29
  %.not.i.i = icmp eq ptr %11, null
  br i1 %.not.i.i, label %_ZL15ucvector_resizeP8ucvectorm.exit, label %.thread.i.i

.thread.i.i:                                      ; preds = %8
  store i64 %10, ptr %5, align 8, !tbaa !59
  store ptr %11, ptr %0, align 8, !tbaa !53
  br label %12

12:                                               ; preds = %.thread.i.i, %1
  %13 = phi ptr [ %11, %.thread.i.i ], [ %.pre, %1 ]
  %14 = getelementptr inbounds nuw i8, ptr %13, i64 %3
  store i64 727905341920923785, ptr %14, align 1, !tbaa !18, !alias.scope !582
  br label %_ZL15ucvector_resizeP8ucvectorm.exit

_ZL15ucvector_resizeP8ucvectorm.exit:             ; preds = %8, %12
  %.0 = phi i32 [ 0, %12 ], [ 83, %8 ]
  ret i32 %.0
}